; Function Attrs: mustprogress uwtable
define hidden void @_ZN2cv8ximgproc15ScanSegmentImpl3OP3Ei(ptr noundef nonnull align 8 dereferenceable(7144) %0, i32 noundef %1) local_unnamed_addr #6 align 2 personality ptr @__gxx_personality_v0 {
  %3 = alloca %"class.cv::Rect_", align 4
  %4 = alloca %"class.cv::Mat", align 8
  %5 = alloca %"class.cv::Mat", align 8
  %6 = alloca %"class.cv::Mat", align 8
  %7 = alloca %"class.cv::Mat", align 8
  %8 = alloca %"class.cv::_OutputArray", align 8
  %9 = alloca %"class.cv::Mat", align 8
  call void @llvm.lifetime.start.p0(i64 16, ptr nonnull %3) #30
  %10 = getelementptr inbounds nuw i8, ptr %0, i64 1240
  %11 = load ptr, ptr %10, align 8, !tbaa !59
  %12 = sext i32 %1 to i64
  %13 = getelementptr inbounds %"class.cv::Rect_", ptr %11, i64 %12
  call void @llvm.memcpy.p0.p0.i64(ptr noundef nonnull align 4 dereferenceable(16) %3, ptr noundef nonnull align 4 dereferenceable(16) %13, i64 16, i1 false), !tbaa.struct !83
  call void @llvm.lifetime.start.p0(i64 96, ptr nonnull %4) #30
  call void @llvm.lifetime.start.p0(i64 96, ptr nonnull %5) #30
  %14 = getelementptr inbounds nuw i8, ptr %0, i64 7048
  call void @_ZN2cv3MatC1ERKS0_RKNS_5Rect_IiEE(ptr noundef nonnull align 8 dereferenceable(96) %5, ptr noundef nonnull align 8 dereferenceable(96) %14, ptr noundef nonnull align 4 dereferenceable(16) %3)
  invoke void @_ZNK2cv3Mat5cloneEv(ptr dead_on_unwind nonnull writable sret(%"class.cv::Mat") align 8 %4, ptr noundef nonnull align 8 dereferenceable(96) %5)
          to label %15 unwind label %29

15:                                               ; preds = %2
  call void @_ZN2cv3MatD1Ev(ptr noundef nonnull align 8 dereferenceable(96) %5) #30
  call void @llvm.lifetime.end.p0(i64 96, ptr nonnull %5) #30
  call void @llvm.lifetime.start.p0(i64 96, ptr nonnull %6) #30
  %16 = getelementptr inbounds nuw i8, ptr %0, i64 6952
  invoke void @_ZN2cv3MatC1ERKS0_RKNS_5Rect_IiEE(ptr noundef nonnull align 8 dereferenceable(96) %6, ptr noundef nonnull align 8 dereferenceable(96) %16, ptr noundef nonnull align 4 dereferenceable(16) %3)
          to label %_ZNK2cv3MatclERKNS_5Rect_IiEE.exit unwind label %31

_ZNK2cv3MatclERKNS_5Rect_IiEE.exit:               ; preds = %15
  invoke void @_ZN2cv8ximgproc15ScanSegmentImpl11watershedExERKNS_3MatERS2_(ptr noundef nonnull align 8 dereferenceable(96) %6, ptr noundef nonnull align 8 dereferenceable(96) %4)
          to label %17 unwind label %33

17:                                               ; preds = %_ZNK2cv3MatclERKNS_5Rect_IiEE.exit
  call void @_ZN2cv3MatD1Ev(ptr noundef nonnull align 8 dereferenceable(96) %6) #30
  call void @llvm.lifetime.end.p0(i64 96, ptr nonnull %6) #30
  call void @llvm.lifetime.start.p0(i64 96, ptr nonnull %7) #30
  %18 = getelementptr inbounds nuw i8, ptr %0, i64 2408
  %19 = load ptr, ptr %18, align 8, !tbaa !59
  %20 = getelementptr inbounds %"class.cv::Rect_", ptr %19, i64 %12
  invoke void @_ZN2cv3MatC1ERKS0_RKNS_5Rect_IiEE(ptr noundef nonnull align 8 dereferenceable(96) %7, ptr noundef nonnull align 8 dereferenceable(96) %4, ptr noundef nonnull align 4 dereferenceable(16) %20)
          to label %_ZNK2cv3MatclERKNS_5Rect_IiEE.exit19 unwind label %36

_ZNK2cv3MatclERKNS_5Rect_IiEE.exit19:             ; preds = %17
  call void @llvm.lifetime.start.p0(i64 24, ptr nonnull %8) #30
  call void @llvm.lifetime.start.p0(i64 96, ptr nonnull %9) #30
  %21 = getelementptr inbounds nuw i8, ptr %0, i64 72
  %22 = load ptr, ptr %21, align 8, !tbaa !59
  %23 = getelementptr inbounds %"class.cv::Rect_", ptr %22, i64 %12
  invoke void @_ZN2cv3MatC1ERKS0_RKNS_5Rect_IiEE(ptr noundef nonnull align 8 dereferenceable(96) %9, ptr noundef nonnull align 8 dereferenceable(96) %14, ptr noundef nonnull align 4 dereferenceable(16) %23)
          to label %24 unwind label %38

24:                                               ; preds = %_ZNK2cv3MatclERKNS_5Rect_IiEE.exit19
  %25 = getelementptr inbounds nuw i8, ptr %8, i64 8
  %26 = getelementptr inbounds nuw i8, ptr %8, i64 16
  store i64 0, ptr %26, align 8
  store i32 -1040121856, ptr %8, align 8, !tbaa !126
  store ptr %9, ptr %25, align 8, !tbaa !115
  invoke void @_ZNK2cv3Mat6copyToERKNS_12_OutputArrayE(ptr noundef nonnull align 8 dereferenceable(96) %7, ptr noundef nonnull align 8 dereferenceable(24) %8)
          to label %27 unwind label %40

27:                                               ; preds = %24
  call void @_ZN2cv3MatD1Ev(ptr noundef nonnull align 8 dereferenceable(96) %9) #30
  call void @llvm.lifetime.end.p0(i64 96, ptr nonnull %9) #30
  call void @llvm.lifetime.end.p0(i64 24, ptr nonnull %8) #30
  call void @_ZN2cv3MatD1Ev(ptr noundef nonnull align 8 dereferenceable(96) %7) #30
  call void @llvm.lifetime.end.p0(i64 96, ptr nonnull %7) #30
  invoke void @_ZN2cv3Mat7releaseEv(ptr noundef nonnull align 8 dereferenceable(96) %4)
          to label %28 unwind label %44

28:                                               ; preds = %27
  call void @_ZN2cv3MatD1Ev(ptr noundef nonnull align 8 dereferenceable(96) %4) #30
  call void @llvm.lifetime.end.p0(i64 96, ptr nonnull %4) #30
  call void @llvm.lifetime.end.p0(i64 16, ptr nonnull %3) #30
  ret void

29:                                               ; preds = %2
  %30 = landingpad { ptr, i32 }
          cleanup
  call void @_ZN2cv3MatD1Ev(ptr noundef nonnull align 8 dereferenceable(96) %5) #30
  call void @llvm.lifetime.end.p0(i64 96, ptr nonnull %5) #30
  br label %47

31:                                               ; preds = %15
  %32 = landingpad { ptr, i32 }
          cleanup
  br label %35

33:                                               ; preds = %_ZNK2cv3MatclERKNS_5Rect_IiEE.exit
  %34 = landingpad { ptr, i32 }
          cleanup
  call void @_ZN2cv3MatD1Ev(ptr noundef nonnull align 8 dereferenceable(96) %6) #30
  br label %35

35:                                               ; preds = %33, %31
  %.pn = phi { ptr, i32 } [ %34, %33 ], [ %32, %31 ]
  call void @llvm.lifetime.end.p0(i64 96, ptr nonnull %6) #30
  br label %46

36:                                               ; preds = %17
  %37 = landingpad { ptr, i32 }
          cleanup
  br label %43

38:                                               ; preds = %_ZNK2cv3MatclERKNS_5Rect_IiEE.exit19
  %39 = landingpad { ptr, i32 }
          cleanup
  br label %42

40:                                               ; preds = %24
  %41 = landingpad { ptr, i32 }
          cleanup
  call void @_ZN2cv3MatD1Ev(ptr noundef nonnull align 8 dereferenceable(96) %9) #30
  br label %42

42:                                               ; preds = %40, %38
  %.pn12.pn = phi { ptr, i32 } [ %41, %40 ], [ %39, %38 ]
  call void @llvm.lifetime.end.p0(i64 96, ptr nonnull %9) #30
  call void @llvm.lifetime.end.p0(i64 24, ptr nonnull %8) #30
  call void @_ZN2cv3MatD1Ev(ptr noundef nonnull align 8 dereferenceable(96) %7) #30
  br label %43

43:                                               ; preds = %42, %36
  %.pn12.pn.pn = phi { ptr, i32 } [ %.pn12.pn, %42 ], [ %37, %36 ]
  call void @llvm.lifetime.end.p0(i64 96, ptr nonnull %7) #30
  br label %46

44:                                               ; preds = %27
  %45 = landingpad { ptr, i32 }
          cleanup
  br label %46

46:                                               ; preds = %44, %43, %35
  %.pn16 = phi { ptr, i32 } [ %45, %44 ], [ %.pn12.pn.pn, %43 ], [ %.pn, %35 ]
  call void @_ZN2cv3MatD1Ev(ptr noundef nonnull align 8 dereferenceable(96) %4) #30
  br label %47

47:                                               ; preds = %46, %29
  %.pn16.pn = phi { ptr, i32 } [ %.pn16, %46 ], [ %30, %29 ]
  call void @llvm.lifetime.end.p0(i64 96, ptr nonnull %4) #30
  call void @llvm.lifetime.end.p0(i64 16, ptr nonnull %3) #30
  resume { ptr, i32 } %.pn16.pn
}